                             //
                             // segment_2.1
                             // Loadable segment  [0x0 - 0x627]
                             // ram:00100000-ram:0010034f
                             //
             assume DF = 0x0  (Default)
        00100000 7f 45 4c        Elf64_Ehdr
                 46 02 01 
                 01 00 00 
                             Elf64_Phdr_ARRAY_00100040                       XREF[2]:     00100020(*), 00100050(*)  
        00100040 06 00 00        Elf64_Ph                                                    PT_PHDR - Program header table
                 00 04 00 
                 00 00 40 
                             //
                             // .note.gnu.property
                             // SHT_NOTE  [0x350 - 0x36f]
                             // ram:00100350-ram:0010036f
                             //
                             NoteGnuProperty_4_00100350                      XREF[3]:     001001d8(*), 00100280(*), 
                                                                                          _elfSectionHeaders::00000050(*)  
        00100350 04 00 00        NoteGnuP                                                    Length of name field
                 00 10 00 
                 00 00 05 
        00100360 02 80 00        NoteGnuP                                                    processor opt 0xc0008002=01 00 0
                 c0 04 00 
                 00 00 01 
        0010036c 00              ??         00h
        0010036d 00              ??         00h
        0010036e 00              ??         00h
        0010036f 00              ??         00h
                             //
                             // .note.gnu.build-id
                             // SHT_NOTE  [0x370 - 0x393]
                             // ram:00100370-ram:00100393
                             //
                             GnuBuildId_00100370                             XREF[2]:     00100210(*), 
                                                                                          _elfSectionHeaders::00000090(*)  
        00100370 04 00 00        GnuBuildId                                                  Length of name field
                 00 14 00 
                 00 00 03 
                             //
                             // .interp
                             // SHT_PROGBITS  [0x394 - 0x3af]
                             // ram:00100394-ram:001003af
                             //
                             s_/lib64/ld-linux-x86-64.so.2_00100394          XREF[2]:     00100088(*), 
                                                                                          _elfSectionHeaders::000000d0(*)  
        00100394 2f 6c 69        ds         "/lib64/ld-linux-x86-64.so.2"                    Initial Elf program interpreter
                 62 36 34 
                 2f 6c 64 
                             //
                             // .gnu.hash
                             // SHT_GNU_HASH  [0x3b0 - 0x3d3]
                             // ram:001003b0-ram:001003d3
                             //
                             __DT_GNU_HASH                                   XREF[2]:     00103e58(*), 
                                                                                          _elfSectionHeaders::00000110(*)  
        001003b0 02 00 00 00     ddw        2h                                               GNU Hash Table - nbucket
        001003b4 06 00 00 00     ddw        6h                                               GNU Hash Table - symbase
        001003b8 01 00 00 00     ddw        1h                                               GNU Hash Table - bloom_size
        001003bc 06 00 00 00     ddw        6h                                               GNU Hash Table - bloom_shift
        001003c0 00 00 81        dq[1]                                                       GNU Hash Table - bloom
                 00 00 00 
                 00 00
        001003c8 06 00 00        ddw[2]                                                      GNU Hash Table - buckets
                 00 00 00 
                 00 00
        001003d0 d1 65 ce 6d     ddw[1]                                                      GNU Hash Table - chain
                             //
                             // .dynsym
                             // SHT_DYNSYM  [0x3d8 - 0x47f]
                             // ram:001003d8-ram:0010047f
                             //
                             __DT_SYMTAB                                     XREF[2]:     00103e78(*), 
                                                                                          _elfSectionHeaders::00000150(*)  
        001003d8 00 00 00        Elf64_Sy
                 00 00 00 
                 00 00 00 
                             //
                             // .dynstr
                             // SHT_STRTAB  [0x480 - 0x50c]
                             // ram:00100480-ram:0010050c
                             //
                             __DT_STRTAB                                     XREF[2]:     00103e68(*), 
                                                                                          _elfSectionHeaders::00000190(*)  
        00100480 00              ??         00h
        00100481 70 75 74        utf8       u8"puts"
                 73 00
        00100486 5f 5f 6c        utf8       u8"__libc_start_main"
                 69 62 63 
                 5f 73 74 
        00100498 5f 5f 63        utf8       u8"__cxa_finalize"
                 78 61 5f 
                 66 69 6e 
        001004a7 6c 69 62        utf8       u8"libc.so.6"
                 63 2e 73 
                 6f 2e 36 00
        001004b1 47 4c 49        utf8       u8"GLIBC_2.2.5"
                 42 43 5f 
                 32 2e 32 
        001004bd 47 4c 49        utf8       u8"GLIBC_2.34"
                 42 43 5f 
                 32 2e 33 
        001004c8 5f 49 54        utf8       u8"_ITM_deregisterTMCloneTable"
                 4d 5f 64 
                 65 72 65 
        001004e4 5f 5f 67        utf8       u8"__gmon_start__"
                 6d 6f 6e 
                 5f 73 74 
        001004f3 5f 49 54        utf8       u8"_ITM_registerTMCloneTable"
                 4d 5f 72 
                 65 67 69 
                             //
                             // .gnu.version
                             // SHT_GNU_versym  [0x50e - 0x51b]
                             // ram:0010050e-ram:0010051b
                             //
                             __DT_VERSYM                                     XREF[2]:     00103f58(*), 
                                                                                          _elfSectionHeaders::000001d0(*)  
        0010050e 00 00           dw         0h                                               0
        00100510 02 00           dw         2h                                               __libc_start_main
        00100512 01 00           dw         1h                                               _ITM_deregisterTMCloneTable
        00100514 03 00           dw         3h                                               puts
        00100516 01 00           dw         1h                                               __gmon_start__
        00100518 01 00           dw         1h                                               _ITM_registerTMCloneTable
        0010051a 03 00           dw         3h                                               __cxa_finalize
                             //
                             // .gnu.version_r
                             // SHT_GNU_verneed  [0x520 - 0x54f]
                             // ram:00100520-ram:0010054f
                             //
                             __DT_VERNEED                                    XREF[2]:     00103f38(*), 
                                                                                          _elfSectionHeaders::00000210(*)  
        00100520 01              ??         01h
        00100521 00              ??         00h
        00100522 02              ??         02h
        00100523 00              ??         00h
        00100524 27              ??         27h    '
        00100525 00              ??         00h
        00100526 00              ??         00h                                              ?  ->  00100000
        00100527 00              ??         00h
        00100528 10              ??         10h
        00100529 00              ??         00h
        0010052a 00              ??         00h
        0010052b 00              ??         00h
        0010052c 00              ??         00h
        0010052d 00              ??         00h
        0010052e 00              ??         00h
        0010052f 00              ??         00h
        00100530 75              ??         75h    u
        00100531 1a              ??         1Ah
        00100532 69              ??         69h    i
        00100533 09              ??         09h
        00100534 00              ??         00h
        00100535 00              ??         00h
        00100536 03              ??         03h
        00100537 00              ??         00h
        00100538 31              ??         31h    1
        00100539 00              ??         00h
        0010053a 00              ??         00h
        0010053b 00              ??         00h
        0010053c 10              ??         10h
        0010053d 00              ??         00h
        0010053e 00              ??         00h
        0010053f 00              ??         00h
        00100540 b4              ??         B4h
        00100541 91              ??         91h
        00100542 96              ??         96h
        00100543 06              ??         06h
        00100544 00              ??         00h
        00100545 00              ??         00h
        00100546 02              ??         02h
        00100547 00              ??         00h
        00100548 3d              ??         3Dh    =
        00100549 00              ??         00h
        0010054a 00              ??         00h
        0010054b 00              ??         00h
        0010054c 00              ??         00h
        0010054d 00              ??         00h
        0010054e 00              ??         00h
        0010054f 00              ??         00h
                             //
                             // .rela.dyn
                             // SHT_RELA  [0x550 - 0x60f]
                             // ram:00100550-ram:0010060f
                             //
                             __DT_RELA                                       XREF[2]:     00103ef8(*), 
                                                                                          _elfSectionHeaders::00000250(*)  
        00100550 d0 3d 00        Elf64_Re                                                    location to apply the relocation
                 00 00 00 
                 00 00 08 
                             //
                             // .rela.plt
                             // SHT_RELA  [0x610 - 0x627]
                             // ram:00100610-ram:00100627
                             //
                             __DT_JMPREL                                     XREF[2]:     00103ee8(*), 
                                                                                          _elfSectionHeaders::00000290(*)  
        00100610 00 40 00        Elf64_Re                                                    location to apply the relocation
                 00 00 00 
                 00 00 07 
                             //
                             // .init
                             // SHT_PROGBITS  [0x1000 - 0x1016]
                             // ram:00101000-ram:00101016
                             //
                             **************************************************************
                             *                          FUNCTION                          *
                             **************************************************************
                             int __stdcall _init(EVP_PKEY_CTX * ctx)
             int               EAX:4          <RETURN>
             EVP_PKEY_CTX *    RDI:8          ctx
                             __DT_INIT                                       XREF[4]:     Entry Point(*), 001000f8(*), 
                             _init                                                        00103df8(*), 
                                                                                          _elfSectionHeaders::000002d0(*)  
        00101000 48 83 ec 08     SUB        RSP,0x8
        00101004 48 8b 05        MOV        RAX=><EXTERNAL>::__gmon_start__,qword ptr [-><   = ??
                 c5 2f 00 00                                                                 = 00105018
        0010100b 48 85 c0        TEST       RAX,RAX
        0010100e 74 02           JZ         LAB_00101012
        00101010 ff d0           CALL       RAX=><EXTERNAL>::__gmon_start__                  undefined __gmon_start__()
                             LAB_00101012                                    XREF[1]:     0010100e(j)  
        00101012 48 83 c4 08     ADD        RSP,0x8
        00101016 c3              RET
                             //
                             // .plt
                             // SHT_PROGBITS  [0x1020 - 0x103f]
                             // ram:00101020-ram:0010103f
                             //
                             **************************************************************
                             *                          FUNCTION                          *
                             **************************************************************
                             undefined FUN_00101020()
             undefined         <UNASSIGNED>   <RETURN>
                             FUN_00101020                                    XREF[4]:     0010103b(c), 00102044, 
                                                                                          001020b8(*), 
                                                                                          _elfSectionHeaders::00000310(*)  
        00101020 ff 35 ca        PUSH       qword ptr [PTR_00103ff0]                         = 00000000
                 2f 00 00
        00101026 ff 25 cc        JMP        qword ptr [PTR_00103ff8]
                 2f 00 00
        0010102c 0f              ??         0Fh
        0010102d 1f              ??         1Fh
        0010102e 40              ??         40h    @
        0010102f 00              ??         00h
                             **************************************************************
                             *                       THUNK FUNCTION                       *
                             **************************************************************
                             thunk int puts(char * __s)
                               Thunked-Function: <EXTERNAL>::puts
             int               EAX:4          <RETURN>
             char *            RDI:8          __s
                             <EXTERNAL>::puts                                XREF[1]:     main:00101147(c)  
        00101030 ff 25 ca        JMP        qword ptr [-><EXTERNAL>::puts]                   int puts(char * __s)
                 2f 00 00
                             -- Flow Override: CALL_RETURN (COMPUTED_CALL_TERMINATOR)
        00101036 68 00 00        PUSH       0x0
                 00 00
        0010103b e9 e0 ff        JMP        FUN_00101020                                     undefined FUN_00101020()
                 ff ff
                             -- Flow Override: CALL_RETURN (CALL_TERMINATOR)
                             //
                             // .plt.got
                             // SHT_PROGBITS  [0x1040 - 0x1047]
                             // ram:00101040-ram:00101047
                             //
                             **************************************************************
                             *                       THUNK FUNCTION                       *
                             **************************************************************
                             thunk undefined __cxa_finalize()
                               Thunked-Function: <EXTERNAL>::__cxa_final
             undefined         <UNASSIGNED>   <RETURN>
                             <EXTERNAL>::__cxa_finalize                      XREF[4]:     __do_global_dtors_aux:00101112(c
                                                                                          0010204c, 001020e0(*), 
                                                                                          _elfSectionHeaders::00000350(*)  
        00101040 ff 25 9a        JMP        qword ptr [-><EXTERNAL>::__cxa_finalize]         undefined __cxa_finalize()
                 2f 00 00
                             -- Flow Override: CALL_RETURN (COMPUTED_CALL_TERMINATOR)
        00101046 66              ??         66h    f
        00101047 90              ??         90h
                             //
                             // .text
                             // SHT_PROGBITS  [0x1050 - 0x1152]
                             // ram:00101050-ram:00101152
                             //
                             **************************************************************
                             *                          FUNCTION                          *
                             **************************************************************
                             undefined processEntry _start()
             undefined         <UNASSIGNED>   <RETURN>
             undefined8        Stack[-0x10]:8 local_10                                XREF[1]:     0010105e(*)  
                             _start                                          XREF[5]:     Entry Point(*), 00100018(*), 
                                                                                          00102054, 00102088(*), 
                                                                                          _elfSectionHeaders::00000390(*)  
        00101050 31 ed           XOR        EBP,EBP
        00101052 49 89 d1        MOV        R9,RDX
        00101055 5e              POP        RSI
        00101056 48 89 e2        MOV        RDX,RSP
        00101059 48 83 e4 f0     AND        RSP,-0x10
        0010105d 50              PUSH       RAX
        0010105e 54              PUSH       RSP=>local_10
        0010105f 45 31 c0        XOR        R8D,R8D
        00101062 31 c9           XOR        ECX,ECX
        00101064 48 8d 3d        LEA        RDI,[main]
                 ce 00 00 00
        0010106b ff 15 4f        CALL       qword ptr [-><EXTERNAL>::__libc_start_main]      undefined __libc_start_main()
                 2f 00 00                                                                    = 00105000
        00101071 f4              HLT
        00101072 66              ??         66h    f
        00101073 2e              ??         2Eh    .
        00101074 0f              ??         0Fh
        00101075 1f              ??         1Fh
        00101076 84              ??         84h
        00101077 00              ??         00h
        00101078 00              ??         00h
        00101079 00              ??         00h
        0010107a 00              ??         00h
        0010107b 00              ??         00h
        0010107c 0f              ??         0Fh
        0010107d 1f              ??         1Fh
        0010107e 40              ??         40h    @
        0010107f 00              ??         00h
                             **************************************************************
                             *                          FUNCTION                          *
                             **************************************************************
                             undefined deregister_tm_clones()
             undefined         <UNASSIGNED>   <RETURN>
                             deregister_tm_clones                            XREF[1]:     __do_global_dtors_aux:00101117(c
        00101080 48 8d 3d        LEA        RDI,[completed.0]                                = ??
                 91 2f 00 00
        00101087 48 8d 05        LEA        RAX,[completed.0]                                = ??
                 8a 2f 00 00
        0010108e 48 39 f8        CMP        RAX,RDI
        00101091 74 15           JZ         LAB_001010a8
        00101093 48 8b 05        MOV        RAX=><EXTERNAL>::_ITM_deregisterTMCloneTable,q   = ??
                 2e 2f 00 00                                                                 = 00105008
        0010109a 48 85 c0        TEST       RAX,RAX
        0010109d 74 09           JZ         LAB_001010a8
        0010109f ff e0           JMP        RAX=><EXTERNAL>::_ITM_deregisterTMCloneTable     undefined _ITM_deregisterTMClone
                             -- Flow Override: CALL_RETURN (COMPUTED_CALL_TERMINATOR)
        001010a1 0f              ??         0Fh
        001010a2 1f              ??         1Fh
        001010a3 80              ??         80h
        001010a4 00              ??         00h
        001010a5 00              ??         00h
        001010a6 00              ??         00h
        001010a7 00              ??         00h
                             LAB_001010a8                                    XREF[2]:     00101091(j), 0010109d(j)  
        001010a8 c3              RET
        001010a9 0f              ??         0Fh
        001010aa 1f              ??         1Fh
        001010ab 80              ??         80h
        001010ac 00              ??         00h
        001010ad 00              ??         00h
        001010ae 00              ??         00h
        001010af 00              ??         00h
                             **************************************************************
                             *                          FUNCTION                          *
                             **************************************************************
                             undefined register_tm_clones()
             undefined         <UNASSIGNED>   <RETURN>
                             register_tm_clones                              XREF[2]:     frame_dummy:00101130(T), 
                                                                                          frame_dummy:00101134(c)  
        001010b0 48 8d 3d        LEA        RDI,[completed.0]                                = ??
                 61 2f 00 00
        001010b7 48 8d 35        LEA        RSI,[completed.0]                                = ??
                 5a 2f 00 00
        001010be 48 29 fe        SUB        RSI,RDI
        001010c1 48 89 f0        MOV        RAX,RSI
        001010c4 48 c1 ee 3f     SHR        RSI,0x3f
        001010c8 48 c1 f8 03     SAR        RAX,0x3
        001010cc 48 01 c6        ADD        RSI,RAX
        001010cf 48 d1 fe        SAR        RSI,0x1
        001010d2 74 14           JZ         LAB_001010e8
        001010d4 48 8b 05        MOV        RAX=><EXTERNAL>::_ITM_registerTMCloneTable,qwo   = ??
                 fd 2e 00 00                                                                 = 00105020
        001010db 48 85 c0        TEST       RAX,RAX
        001010de 74 08           JZ         LAB_001010e8
        001010e0 ff e0           JMP        RAX=><EXTERNAL>::_ITM_registerTMCloneTable       undefined _ITM_registerTMCloneTa
                             -- Flow Override: CALL_RETURN (COMPUTED_CALL_TERMINATOR)
        001010e2 66              ??         66h    f
        001010e3 0f              ??         0Fh
        001010e4 1f              ??         1Fh
        001010e5 44              ??         44h    D
        001010e6 00              ??         00h
        001010e7 00              ??         00h
                             LAB_001010e8                                    XREF[2]:     001010d2(j), 001010de(j)  
        001010e8 c3              RET
        001010e9 0f              ??         0Fh
        001010ea 1f              ??         1Fh
        001010eb 80              ??         80h
        001010ec 00              ??         00h
        001010ed 00              ??         00h
        001010ee 00              ??         00h
        001010ef 00              ??         00h
                             **************************************************************
                             *                          FUNCTION                          *
                             **************************************************************
                             undefined __do_global_dtors_aux()
             undefined         <UNASSIGNED>   <RETURN>
                             __do_global_dtors_aux                           XREF[2]:     Entry Point(*), 00103dd8(*)  
        001010f0 f3 0f 1e fa     ENDBR64
        001010f4 80 3d 1d        CMP        byte ptr [completed.0],0x0                       = ??
                 2f 00 00 00
        001010fb 75 2b           JNZ        LAB_00101128
        001010fd 55              PUSH       RBP
        001010fe 48 83 3d        CMP        qword ptr [-><EXTERNAL>::__cxa_finalize],0x0     = 00105028
                 da 2e 00 
                 00 00
        00101106 48 89 e5        MOV        RBP,RSP
        00101109 74 0c           JZ         LAB_00101117
        0010110b 48 8b 3d        MOV        RDI,qword ptr [->__dso_handle]                   = 00104010
                 fe 2e 00 00
        00101112 e8 29 ff        CALL       <EXTERNAL>::__cxa_finalize                       undefined __cxa_finalize()
                 ff ff
                             LAB_00101117                                    XREF[1]:     00101109(j)  
        00101117 e8 64 ff        CALL       deregister_tm_clones                             undefined deregister_tm_clones()
                 ff ff
        0010111c c6 05 f5        MOV        byte ptr [completed.0],0x1                       = ??
                 2e 00 00 01
        00101123 5d              POP        RBP
        00101124 c3              RET
        00101125 0f              ??         0Fh
        00101126 1f              ??         1Fh
        00101127 00              ??         00h
                             LAB_00101128                                    XREF[1]:     001010fb(j)  
        00101128 c3              RET
        00101129 0f              ??         0Fh
        0010112a 1f              ??         1Fh
        0010112b 80              ??         80h
        0010112c 00              ??         00h
        0010112d 00              ??         00h
        0010112e 00              ??         00h
        0010112f 00              ??         00h
                             **************************************************************
                             *                       THUNK FUNCTION                       *
                             **************************************************************
                             thunk undefined frame_dummy()
                               Thunked-Function: register_tm_clones
             undefined         <UNASSIGNED>   <RETURN>
                             frame_dummy                                     XREF[2]:     Entry Point(*), 00103dd0(*)  
        00101130 f3 0f 1e fa     ENDBR64
        00101134 e9 77 ff        JMP        register_tm_clones                               undefined register_tm_clones()
                 ff ff
                             -- Flow Override: CALL_RETURN (CALL_TERMINATOR)
                             **************************************************************
                             *                          FUNCTION                          *
                             **************************************************************
                             undefined main()
             undefined         <UNASSIGNED>   <RETURN>
                             main                                            XREF[4]:     Entry Point(*), 
                                                                                          _start:00101064(*), 0010205c, 
                                                                                          001020f8(*)  
        00101139 55              PUSH       RBP
        0010113a 48 89 e5        MOV        RBP,RSP
        0010113d 48 8d 05        LEA        RAX,[s_Connecting_to_http://fake-malwar_001020   = "Connecting to http://fake-mal
                 c4 0e 00 00
        00101144 48 89 c7        MOV        RDI=>s_Connecting_to_http://fake-malwar_001020   = "Connecting to http://fake-mal
        00101147 e8 e4 fe        CALL       <EXTERNAL>::puts                                 int puts(char * __s)
                 ff ff
        0010114c b8 00 00        MOV        EAX,0x0
                 00 00
        00101151 5d              POP        RBP
        00101152 c3              RET
                             //
                             // .fini
                             // SHT_PROGBITS  [0x1154 - 0x115c]
                             // ram:00101154-ram:0010115c
                             //
                             **************************************************************
                             *                          FUNCTION                          *
                             **************************************************************
                             undefined _fini()
             undefined         <UNASSIGNED>   <RETURN>
                             __DT_FINI                                       XREF[3]:     Entry Point(*), 00103e08(*), 
                             _fini                                                        _elfSectionHeaders::000003d0(*)  
        00101154 48 83 ec 08     SUB        RSP,0x8
        00101158 48 83 c4 08     ADD        RSP,0x8
        0010115c c3              RET
                             //
                             // .rodata
                             // SHT_PROGBITS  [0x2000 - 0x2034]
                             // ram:00102000-ram:00102034
                             //
                             _IO_stdin_used                                  XREF[3]:     Entry Point(*), 00100130(*), 
                                                                                          _elfSectionHeaders::00000410(*)  
        00102000 01 00 02 00     undefined4 00020001h
        00102004 00              ??         00h
        00102005 00              ??         00h
        00102006 00              ??         00h
        00102007 00              ??         00h
                             s_Connecting_to_http://fake-malwar_00102008     XREF[2]:     main:0010113d(*), 
                                                                                          main:00101144(*)  
        00102008 43 6f 6e        ds         "Connecting to http://fake-malware-server.com"
                 6e 65 63 
                 74 69 6e 
                             //
                             // .eh_frame_hdr
                             // SHT_PROGBITS  [0x2038 - 0x2063]
                             // ram:00102038-ram:00102063
                             //
                             **************************************************************
                             * Exception Handler Frame Header                             *
                             **************************************************************
                             __GNU_EH_FRAME_HDR                              XREF[2]:     001002b8(*), 
                                                                                          _elfSectionHeaders::00000450(*)  
        00102038 01 1b 03 3b     eh_frame                                                    Exception Handler Frame Header V
        0010203c 2c 00 00 00     ddw        cie_00102068                                     Encoded eh_frame_ptr
        00102040 04 00 00 00     ddw        4h                                               Encoded FDE count
                             **************************************************************
                             * Frame Description Entry Table                              *
                             **************************************************************
        00102044 e8 ef ff        fde_tabl                                                    Initial Location
                 ff 78 00 
                 00 00
        0010204c 08 f0 ff        fde_tabl                                                    Initial Location
                 ff a0 00 
                 00 00
        00102054 18 f0 ff        fde_tabl                                                    Initial Location
                 ff 48 00 
                 00 00
        0010205c 01 f1 ff        fde_tabl                                                    Initial Location
                 ff b8 00 
                 00 00
                             //
                             // .eh_frame
                             // SHT_PROGBITS  [0x2068 - 0x2113]
                             // ram:00102068-ram:00102113
                             //
                             **************************************************************
                             * Common Information Entry                                   *
                             **************************************************************
                             cie_00102068                                    XREF[3]:     0010203c(*), 00102084(*), 
                                                                                          _elfSectionHeaders::00000490(*)  
        00102068 14 00 00 00     ddw        14h                                              (CIE) Length
        0010206c 00 00 00 00     ddw        0h                                               (CIE) ID
        00102070 01              db         1h                                               (CIE) Version
        00102071 7a 52 00        ds         "zR"                                             (CIE) Augmentation String
        00102074 01              uleb128    1h                                               (CIE) Code Alignment
        00102075 78              sleb128    -8h                                              (CIE) Data Alignment
        00102076 10              db         10h                                              (CIE) Return Address Register Co
        00102077 01              uleb128    1h                                               (CIE) Augmentation Data Length
        00102078 1b              dwfenc     DW_EH_PE_sdata4 | DW_EH_PE_pcrel                 (CIE Augmentation Data) FDE Enco
        00102079 0c 07 08        db[7]                                                       (CIE) Initial Instructions
                 90 01 07 10
                             **************************************************************
                             * Frame Descriptor Entry                                     *
                             **************************************************************
                             fde_00102080                                    XREF[1]:     00102058(*)  
        00102080 14 00 00 00     ddw        14h                                              (FDE) Length
        00102084 1c 00 00 00     ddw        cie_00102068                                     (FDE) CIE Reference Pointer 
        00102088 c8 ef ff ff     ddw        _start                                           (FDE) PcBegin
        0010208c 22 00 00        dq         22h                                              (FDE) PcRange
                 00 00 00 
                 00 00
        00102094 00              uleb128    0h                                               (FDE) Augmentation Data Length
        00102095 00 00 00        db[3]                                                       (FDE) Call Frame Instructions
                             **************************************************************
                             * Common Information Entry                                   *
                             **************************************************************
                             cie_00102098                                    XREF[3]:     001020b4(*), 001020dc(*), 
                                                                                          001020f4(*)  
        00102098 14 00 00 00     ddw        14h                                              (CIE) Length
        0010209c 00 00 00 00     ddw        0h                                               (CIE) ID
        001020a0 01              db         1h                                               (CIE) Version
        001020a1 7a 52 00        ds         "zR"                                             (CIE) Augmentation String
        001020a4 01              uleb128    1h                                               (CIE) Code Alignment
        001020a5 78              sleb128    -8h                                              (CIE) Data Alignment
        001020a6 10              db         10h                                              (CIE) Return Address Register Co
        001020a7 01              uleb128    1h                                               (CIE) Augmentation Data Length
        001020a8 1b              dwfenc     DW_EH_PE_sdata4 | DW_EH_PE_pcrel                 (CIE Augmentation Data) FDE Enco
        001020a9 0c 07 08        db[7]                                                       (CIE) Initial Instructions
                 90 01 00 00
                             **************************************************************
                             * Frame Descriptor Entry                                     *
                             **************************************************************
                             fde_001020b0                                    XREF[1]:     00102048(*)  
        001020b0 24 00 00 00     ddw        24h                                              (FDE) Length
        001020b4 1c 00 00 00     ddw        cie_00102098                                     (FDE) CIE Reference Pointer 
        001020b8 68 ef ff ff     ddw        FUN_00101020                                     (FDE) PcBegin
        001020bc 20 00 00 00     ddw        20h                                              (FDE) PcRange
        001020c0 00              uleb128    0h                                               (FDE) Augmentation Data Length
        001020c1 0e 10 46        db[23]                                                      (FDE) Call Frame Instructions
                 0e 18 4a 
                 0f 0b 77 
                             **************************************************************
                             * Frame Descriptor Entry                                     *
                             **************************************************************
                             fde_001020d8                                    XREF[1]:     00102050(*)  
        001020d8 14 00 00 00     ddw        14h                                              (FDE) Length
        001020dc 44 00 00 00     ddw        cie_00102098                                     (FDE) CIE Reference Pointer 
        001020e0 60 ef ff ff     ddw        <EXTERNAL>::__cxa_finalize                       (FDE) PcBegin
        001020e4 08 00 00        dq         8h                                               (FDE) PcRange
                 00 00 00 
                 00 00
        001020ec 00              uleb128    0h                                               (FDE) Augmentation Data Length
        001020ed 00 00 00        db[3]                                                       (FDE) Call Frame Instructions
                             **************************************************************
                             * Frame Descriptor Entry                                     *
                             **************************************************************
                             fde_001020f0                                    XREF[1]:     00102060(*)  
        001020f0 1c 00 00 00     ddw        1Ch                                              (FDE) Length
        001020f4 5c 00 00 00     ddw        cie_00102098                                     (FDE) CIE Reference Pointer 
        001020f8 41 f0 ff ff     ddw        main                                             (FDE) PcBegin
        001020fc 1a 00 00 00     ddw        1Ah                                              (FDE) PcRange
        00102100 00              uleb128    0h                                               (FDE) Augmentation Data Length
        00102101 41 0e 10        db[15]                                                      (FDE) Call Frame Instructions
                 86 02 43 
                 0d 06 55 
                             **************************************************************
                             * END OF FRAME                                               *
                             **************************************************************
                             __FRAME_END__
        00102110 00 00 00 00     ddw        0h                                               End of Frame
                             //
                             // .note.ABI-tag
                             // SHT_NOTE  [0x2114 - 0x2133]
                             // ram:00102114-ram:00102133
                             //
                             __abi_tag                                       XREF[2]:     00100248(*), 
                                                                                          _elfSectionHeaders::000004d0(*)  
        00102114 04 00 00        NoteAbiTag                                                  Length of name field
                 00 10 00 
                 00 00 01 
                             //
                             // .init_array
                             // SHT_INIT_ARRAY  [0x3dd0 - 0x3dd7]
                             // ram:00103dd0-ram:00103dd7
                             //
                             __DT_INIT_ARRAY                                 XREF[4]:     00100168(*), 00100328(*), 
                             __frame_dummy_init_array_entry                               00103e18(*), 
                                                                                          _elfSectionHeaders::00000510(*)  
        00103dd0 30 11 10        addr       frame_dummy
                 00 00 00 
                 00 00
                             //
                             // .fini_array
                             // SHT_FINI_ARRAY  [0x3dd8 - 0x3ddf]
                             // ram:00103dd8-ram:00103ddf
                             //
                             __DT_FINI_ARRAY                                 XREF[2]:     00103e38(*), 
                             __do_global_dtors_aux_fini_array_entry                       _elfSectionHeaders::00000550(*)  
        00103dd8 f0 10 10        addr       __do_global_dtors_aux
                 00 00 00 
                 00 00
                             //
                             // .dynamic
                             // SHT_DYNAMIC  [0x3de0 - 0x3fbf]
                             // ram:00103de0-ram:00103fbf
                             //
                             _DYNAMIC                                        XREF[3]:     001001a0(*), 00103fe8(*), 
                                                                                          _elfSectionHeaders::00000590(*)  
        00103de0 01 00 00        Elf64_Dy                                                    DT_NEEDED - Name of needed library
                 00 00 00 
                 00 00 27 
        00103f80 00              ??         00h
        00103f81 00              ??         00h
        00103f82 00              ??         00h
        00103f83 00              ??         00h
        00103f84 00              ??         00h
        00103f85 00              ??         00h
        00103f86 00              ??         00h
        00103f87 00              ??         00h
        00103f88 00              ??         00h
        00103f89 00              ??         00h
        00103f8a 00              ??         00h
        00103f8b 00              ??         00h
        00103f8c 00              ??         00h
        00103f8d 00              ??         00h
        00103f8e 00              ??         00h
        00103f8f 00              ??         00h
        00103f90 00              ??         00h
        00103f91 00              ??         00h
        00103f92 00              ??         00h
        00103f93 00              ??         00h
        00103f94 00              ??         00h
        00103f95 00              ??         00h
        00103f96 00              ??         00h
        00103f97 00              ??         00h
        00103f98 00              ??         00h
        00103f99 00              ??         00h
        00103f9a 00              ??         00h
        00103f9b 00              ??         00h
        00103f9c 00              ??         00h
        00103f9d 00              ??         00h
        00103f9e 00              ??         00h
        00103f9f 00              ??         00h
        00103fa0 00              ??         00h
        00103fa1 00              ??         00h
        00103fa2 00              ??         00h
        00103fa3 00              ??         00h
        00103fa4 00              ??         00h
        00103fa5 00              ??         00h
        00103fa6 00              ??         00h
        00103fa7 00              ??         00h
        00103fa8 00              ??         00h
        00103fa9 00              ??         00h
        00103faa 00              ??         00h
        00103fab 00              ??         00h
        00103fac 00              ??         00h
        00103fad 00              ??         00h
        00103fae 00              ??         00h
        00103faf 00              ??         00h
        00103fb0 00              ??         00h
        00103fb1 00              ??         00h
        00103fb2 00              ??         00h
        00103fb3 00              ??         00h
        00103fb4 00              ??         00h
        00103fb5 00              ??         00h
        00103fb6 00              ??         00h
        00103fb7 00              ??         00h
        00103fb8 00              ??         00h
        00103fb9 00              ??         00h
        00103fba 00              ??         00h
        00103fbb 00              ??         00h
        00103fbc 00              ??         00h
        00103fbd 00              ??         00h
        00103fbe 00              ??         00h
        00103fbf 00              ??         00h
                             //
                             // .got
                             // SHT_PROGBITS  [0x3fc0 - 0x3fe7]
                             // ram:00103fc0-ram:00103fe7
                             //
                             PTR___libc_start_main_00103fc0                  XREF[2]:     _start:0010106b(R), 
                                                                                          _elfSectionHeaders::000005d0(*)  
        00103fc0 00 50 10        addr       <EXTERNAL>::__libc_start_main                    = ??
                 00 00 00 
                 00 00
                             PTR__ITM_deregisterTMCloneTable_00103fc8        XREF[1]:     deregister_tm_clones:00101093(R)  
        00103fc8 08 50 10        addr       <EXTERNAL>::_ITM_deregisterTMCloneTable          = ??
                 00 00 00 
                 00 00
                             PTR___gmon_start___00103fd0                     XREF[1]:     _init:00101004(R)  
        00103fd0 18 50 10        addr       <EXTERNAL>::__gmon_start__                       = ??
                 00 00 00 
                 00 00
                             PTR__ITM_registerTMCloneTable_00103fd8          XREF[1]:     register_tm_clones:001010d4(R)  
        00103fd8 20 50 10        addr       <EXTERNAL>::_ITM_registerTMCloneTable            = ??
                 00 00 00 
                 00 00
                             PTR___cxa_finalize_00103fe0                     XREF[2]:     __cxa_finalize:00101040, 
                                                                                          __do_global_dtors_aux:001010fe(R
        00103fe0 28 50 10        addr       <EXTERNAL>::__cxa_finalize                       = ??
                 00 00 00 
                 00 00
                             //
                             // .got.plt
                             // SHT_PROGBITS  [0x3fe8 - 0x4007]
                             // ram:00103fe8-ram:00104007
                             //
                             __DT_PLTGOT                                     XREF[2]:     00103eb8(*), 
                             _GLOBAL_OFFSET_TABLE_                                        _elfSectionHeaders::00000610(*)  
        00103fe8 e0 3d 10        addr       _DYNAMIC
                 00 00 00 
                 00 00
                             PTR_00103ff0                                    XREF[1]:     FUN_00101020:00101020(R)  
        00103ff0 00 00 00        addr       00000000
                 00 00 00 
                 00 00
                             PTR_00103ff8                                    XREF[1]:     FUN_00101020:00101026  
        00103ff8 00 00 00        addr       00000000
                 00 00 00 
                 00 00
                             PTR_puts_00104000                               XREF[1]:     puts:00101030  
        00104000 10 50 10        addr       <EXTERNAL>::puts                                 = ??
                 00 00 00 
                 00 00
                             //
                             // .data
                             // SHT_PROGBITS  [0x4008 - 0x4017]
                             // ram:00104008-ram:00104017
                             //
                             __data_start                                    XREF[2]:     Entry Point(*), 
                             data_start                                                   _elfSectionHeaders::00000650(*)  
        00104008 00              ??         00h
        00104009 00              ??         00h
        0010400a 00              ??         00h
        0010400b 00              ??         00h
        0010400c 00              ??         00h
        0010400d 00              ??         00h
        0010400e 00              ??         00h
        0010400f 00              ??         00h
                             __dso_handle                                    XREF[3]:     Entry Point(*), 
                                                                                          __do_global_dtors_aux:0010110b(R
                                                                                          00104010(*)  
        00104010 10 40 10        addr       __dso_handle                                     = 00104010
                 00 00 00 
                 00 00
                             //
                             // .bss
                             // SHT_NOBITS  [0x4018 - 0x401f]
                             // ram:00104018-ram:0010401f
                             //
                             _edata                                          XREF[8]:     Entry Point(*), 
                             __bss_start                                                  deregister_tm_clones:00101080(*), 
                             __TMC_END__                                                  deregister_tm_clones:00101087(*), 
                             completed.0                                                  register_tm_clones:001010b0(*), 
                                                                                          register_tm_clones:001010b7(*), 
                                                                                          __do_global_dtors_aux:001010f4(R
                                                                                          __do_global_dtors_aux:0010111c(W
                                                                                          _elfSectionHeaders::00000690(*)  
        00104018                 undefined1 ??
        00104019                 ??         ??
        0010401a                 ??         ??
        0010401b                 ??         ??
        0010401c                 ??         ??
        0010401d                 ??         ??
        0010401e                 ??         ??
        0010401f                 ??         ??
                             //
                             // EXTERNAL
                             // NOTE: This block is artificial and allows ELF Relocations 
                             // ram:00105000-ram:0010502f
                             //
                             **************************************************************
                             *                       THUNK FUNCTION                       *
                             **************************************************************
                             thunk undefined __libc_start_main()
                               Thunked-Function: <EXTERNAL>::__libc_star
             undefined         <UNASSIGNED>   <RETURN>
                             __libc_start_main@GLIBC_2.34
                             <EXTERNAL>::__libc_start_main                   XREF[2]:     _start:0010106b(c), 00103fc0(*)  
        00105000                 ??         ??
        00105001                 ??         ??
        00105002                 ??         ??
        00105003                 ??         ??
        00105004                 ??         ??
        00105005                 ??         ??
        00105006                 ??         ??
        00105007                 ??         ??
                             **************************************************************
                             *                       THUNK FUNCTION                       *
                             **************************************************************
                             thunk undefined _ITM_deregisterTMCloneTable()
                               Thunked-Function: <EXTERNAL>::_ITM_deregi
             undefined         <UNASSIGNED>   <RETURN>
                             <EXTERNAL>::_ITM_deregisterTMCloneTable         XREF[3]:     deregister_tm_clones:00101093(*), 
                                                                                          deregister_tm_clones:0010109f(c), 
                                                                                          00103fc8(*)  
        00105008                 ??         ??
        00105009                 ??         ??
        0010500a                 ??         ??
        0010500b                 ??         ??
        0010500c                 ??         ??
        0010500d                 ??         ??
        0010500e                 ??         ??
        0010500f                 ??         ??
                             **************************************************************
                             *                       THUNK FUNCTION                       *
                             **************************************************************
                             thunk int puts(char * __s)
                               Thunked-Function: <EXTERNAL>::puts
             int               EAX:4          <RETURN>
             char *            RDI:8          __s
                             puts@GLIBC_2.2.5
                             <EXTERNAL>::puts                                XREF[3]:     puts:00101030(T), 
                                                                                          puts:00101030(c), 00104000(*)  
        00105010                 ??         ??
        00105011                 ??         ??
        00105012                 ??         ??
        00105013                 ??         ??
        00105014                 ??         ??
        00105015                 ??         ??
        00105016                 ??         ??
        00105017                 ??         ??
                             **************************************************************
                             *                       THUNK FUNCTION                       *
                             **************************************************************
                             thunk undefined __gmon_start__()
                               Thunked-Function: <EXTERNAL>::__gmon_star
             undefined         <UNASSIGNED>   <RETURN>
                             <EXTERNAL>::__gmon_start__                      XREF[3]:     _init:00101004(*), 
                                                                                          _init:00101010(c), 00103fd0(*)  
        00105018                 ??         ??
        00105019                 ??         ??
        0010501a                 ??         ??
        0010501b                 ??         ??
        0010501c                 ??         ??
        0010501d                 ??         ??
        0010501e                 ??         ??
        0010501f                 ??         ??
                             **************************************************************
                             *                       THUNK FUNCTION                       *
                             **************************************************************
                             thunk undefined _ITM_registerTMCloneTable()
                               Thunked-Function: <EXTERNAL>::_ITM_regist
             undefined         <UNASSIGNED>   <RETURN>
                             <EXTERNAL>::_ITM_registerTMCloneTable           XREF[3]:     register_tm_clones:001010d4(*), 
                                                                                          register_tm_clones:001010e0(c), 
                                                                                          00103fd8(*)  
        00105020                 ??         ??
        00105021                 ??         ??
        00105022                 ??         ??
        00105023                 ??         ??
        00105024                 ??         ??
        00105025                 ??         ??
        00105026                 ??         ??
        00105027                 ??         ??
                             **************************************************************
                             *                       THUNK FUNCTION                       *
                             **************************************************************
                             thunk undefined __cxa_finalize()
                               Thunked-Function: <EXTERNAL>::__cxa_final
             undefined         <UNASSIGNED>   <RETURN>
                             __cxa_finalize@GLIBC_2.2.5
                             <EXTERNAL>::__cxa_finalize                      XREF[3]:     __cxa_finalize:00101040(T), 
                                                                                          __cxa_finalize:00101040(c), 
                                                                                          00103fe0(*)  
        00105028                 ??         ??
        00105029                 ??         ??
        0010502a                 ??         ??
        0010502b                 ??         ??
        0010502c                 ??         ??
        0010502d                 ??         ??
        0010502e                 ??         ??
        0010502f                 ??         ??
                             //
                             // .comment
                             // SHT_PROGBITS [not-loaded]
                             // .comment::00000000-.comment::0000001d
                             //
             assume DF = <UNKNOWN>
                             ElfComment[0]                                   XREF[1]:     _elfSectionHeaders::000006d0(*)  
     t::00000000 47 43 43        utf8       u8"GCC: (Debian 14.3.0-5) 14.3.0"
                 3a 20 28 
                 44 65 62 
                             //
                             // .shstrtab
                             // SHT_STRTAB [not-loaded]
                             // .shstrtab::00000000-.shstrtab::00000119
                             //
                             DAT_.shstrtab__00000000                         XREF[1]:     _elfSectionHeaders::00000790(*)  
     b::00000000 00              ??         00h
     b::00000001 2e 73 79        utf8       u8".symtab"
                 6d 74 61 
                 62 00
     b::00000009 2e 73 74        utf8       u8".strtab"
                 72 74 61 
                 62 00
     b::00000011 2e 73 68        utf8       u8".shstrtab"
                 73 74 72 
                 74 61 62 00
     b::0000001b 2e 6e 6f        utf8       u8".note.gnu.property"
                 74 65 2e 
                 67 6e 75 
     b::0000002e 2e 6e 6f        utf8       u8".note.gnu.build-id"
                 74 65 2e 
                 67 6e 75 
     b::00000041 2e 69 6e        utf8       u8".interp"
                 74 65 72 
                 70 00
     b::00000049 2e 67 6e        utf8       u8".gnu.hash"
                 75 2e 68 
                 61 73 68 00
     b::00000053 2e 64 79        utf8       u8".dynsym"
                 6e 73 79 
                 6d 00
     b::0000005b 2e 64 79        utf8       u8".dynstr"
                 6e 73 74 
                 72 00
     b::00000063 2e 67 6e        utf8       u8".gnu.version"
                 75 2e 76 
                 65 72 73 
     b::00000070 2e 67 6e        utf8       u8".gnu.version_r"
                 75 2e 76 
                 65 72 73 
     b::0000007f 2e 72 65        utf8       u8".rela.dyn"
                 6c 61 2e 
                 64 79 6e 00
     b::00000089 2e 72 65        utf8       u8".rela.plt"
                 6c 61 2e 
                 70 6c 74 00
     b::00000093 2e 69 6e        utf8       u8".init"
                 69 74 00
     b::00000099 2e 70 6c        utf8       u8".plt.got"
                 74 2e 67 
                 6f 74 00
     b::000000a2 2e 74 65        utf8       u8".text"
                 78 74 00
     b::000000a8 2e 66 69        utf8       u8".fini"
                 6e 69 00
     b::000000ae 2e 72 6f        utf8       u8".rodata"
                 64 61 74 
                 61 00
     b::000000b6 2e 65 68        utf8       u8".eh_frame_hdr"
                 5f 66 72 
                 61 6d 65 
     b::000000c4 2e 65 68        utf8       u8".eh_frame"
                 5f 66 72 
                 61 6d 65 00
     b::000000ce 2e 6e 6f        utf8       u8".note.ABI-tag"
                 74 65 2e 
                 41 42 49 
     b::000000dc 2e 69 6e        utf8       u8".init_array"
                 69 74 5f 
                 61 72 72 
     b::000000e8 2e 66 69        utf8       u8".fini_array"
                 6e 69 5f 
                 61 72 72 
     b::000000f4 2e 64 79        utf8       u8".dynamic"
                 6e 61 6d 
                 69 63 00
     b::000000fd 2e 67 6f        utf8       u8".got.plt"
                 74 2e 70 
                 6c 74 00
     b::00000106 2e 64 61        utf8       u8".data"
                 74 61 00
     b::0000010c 2e 62 73        utf8       u8".bss"
                 73 00
     b::00000111 2e 63 6f        utf8       u8".comment"
                 6d 6d 65 
                 6e 74 00
                             //
                             // .strtab
                             // SHT_STRTAB [not-loaded]
                             // .strtab::00000000-.strtab::000001da
                             //
                             DAT_.strtab__00000000                           XREF[1]:     _elfSectionHeaders::00000750(*)  
     b::00000000 00              ??         00h
     b::00000001 53 63 72        utf8       u8"Scrt1.o"
                 74 31 2e 
                 6f 00
     b::00000009 5f 5f 61        utf8       u8"__abi_tag"
                 62 69 5f 
                 74 61 67 00
     b::00000013 63 72 74        utf8       u8"crtstuff.c"
                 73 74 75 
                 66 66 2e 
     b::0000001e 64 65 72        utf8       u8"deregister_tm_clones"
                 65 67 69 
                 73 74 65 
     b::00000033 5f 5f 64        utf8       u8"__do_global_dtors_aux"
                 6f 5f 67 
                 6c 6f 62 
     b::00000049 63 6f 6d        utf8       u8"completed.0"
                 70 6c 65 
                 74 65 64 
     b::00000055 5f 5f 64        utf8       u8"__do_global_dtors_aux_fini_array_entry"
                 6f 5f 67 
                 6c 6f 62 
     b::0000007c 66 72 61        utf8       u8"frame_dummy"
                 6d 65 5f 
                 64 75 6d 
     b::00000088 5f 5f 66        utf8       u8"__frame_dummy_init_array_entry"
                 72 61 6d 
                 65 5f 64 
     b::000000a7 64 75 6d        utf8       u8"dummy.c"
                 6d 79 2e 
                 63 00
     b::000000af 5f 5f 46        utf8       u8"__FRAME_END__"
                 52 41 4d 
                 45 5f 45 
     b::000000bd 5f 44 59        utf8       u8"_DYNAMIC"
                 4e 41 4d 
                 49 43 00
     b::000000c6 5f 5f 47        utf8       u8"__GNU_EH_FRAME_HDR"
                 4e 55 5f 
                 45 48 5f 
     b::000000d9 5f 47 4c        utf8       u8"_GLOBAL_OFFSET_TABLE_"
                 4f 42 41 
                 4c 5f 4f 
     b::000000ef 5f 5f 6c        utf8       u8"__libc_start_main@GLIBC_2.34"
                 69 62 63 
                 5f 73 74 
     b::0000010c 5f 49 54        utf8       u8"_ITM_deregisterTMCloneTable"
                 4d 5f 64 
                 65 72 65 
     b::00000128 70 75 74        utf8       u8"puts@GLIBC_2.2.5"
                 73 40 47 
                 4c 49 42 
     b::00000139 5f 65 64        utf8       u8"_edata"
                 61 74 61 00
     b::00000140 5f 66 69        utf8       u8"_fini"
                 6e 69 00
     b::00000146 5f 5f 64        utf8       u8"__data_start"
                 61 74 61 
                 5f 73 74 
     b::00000153 5f 5f 67        utf8       u8"__gmon_start__"
                 6d 6f 6e 
                 5f 73 74 
     b::00000162 5f 5f 64        utf8       u8"__dso_handle"
                 73 6f 5f 
                 68 61 6e 
     b::0000016f 5f 49 4f        utf8       u8"_IO_stdin_used"
                 5f 73 74 
                 64 69 6e 
     b::0000017e 5f 65 6e        utf8       u8"_end"
                 64 00
     b::00000183 5f 5f 62        utf8       u8"__bss_start"
                 73 73 5f 
                 73 74 61 
     b::0000018f 6d 61 69        utf8       u8"main"
                 6e 00
     b::00000194 5f 5f 54        utf8       u8"__TMC_END__"
                 4d 43 5f 
                 45 4e 44 
     b::000001a0 5f 49 54        utf8       u8"_ITM_registerTMCloneTable"
                 4d 5f 72 
                 65 67 69 
     b::000001ba 5f 5f 63        utf8       u8"__cxa_finalize@GLIBC_2.2.5"
                 78 61 5f 
                 66 69 6e 
     b::000001d5 5f 69 6e        utf8       u8"_init"
                 69 74 00
                             //
                             // .symtab
                             // SHT_SYMTAB [not-loaded]
                             // .symtab::00000000-.symtab::0000035f
                             //
                             Elf64_Sym_ARRAY_.symtab__00000000               XREF[1]:     _elfSectionHeaders::00000710(*)  
     b::00000000 00 00 00        Elf64_Sy
                 00 00 00 
                 00 00 00 
                             //
                             // _elfSectionHeaders
                             // Elf Section Headers
                             // _elfSectionHeaders::00000000-_elfSectionHeaders::000007bf
                             //
                             Elf64_Shdr_ARRAY__elfSectionHeaders__00000000   XREF[1]:     00100028(*)  
     s::00000000 00 00 00        Elf64_Sh                                                    SECTION0 - SHT_NULL
                 00 00 00 
                 00 00 00 

